; ModuleID = '28/630.c'
source_filename = "28/630.c"
target datalayout = "e-m:e-p270:32:32-p271:32:32-p272:64:64-i64:64-f80:128-n8:16:32:64-S128"
target triple = "x86_64-pc-linux-gnu"

@.str = private unnamed_addr constant [3 x i8] c"%d\00", align 1
@.str.1 = private unnamed_addr constant [4 x i8] c",%d\00", align 1

; Function Attrs: noinline nounwind uwtable
define dso_local void @main() #0 {
  %1 = alloca i32, align 4
  %2 = alloca i32, align 4
  %3 = alloca [1111 x i32], align 16
  %4 = alloca i32, align 4
  %5 = alloca [11111 x i8], align 16
  %6 = alloca i8*, align 8
  store i32 0, i32* %4, align 4
  %7 = getelementptr inbounds [11111 x i8], [11111 x i8]* %5, i64 0, i64 0
  %8 = call i32 (i8*, ...) bitcast (i32 (...)* @gets to i32 (i8*, ...)*)(i8* %7)
  %9 = getelementptr inbounds [11111 x i8], [11111 x i8]* %5, i64 0, i64 0
  store i8* %9, i8** %6, align 8
  br label %10

10:                                               ; preds = %24, %0
  %11 = load i8*, i8** %6, align 8
  %12 = load i8, i8* %11, align 1
  %13 = sext i8 %12 to i32
  %14 = icmp ne i32 %13, 0
  br i1 %14, label %15, label %27

15:                                               ; preds = %10
  %16 = load i8*, i8** %6, align 8
  %17 = load i8, i8* %16, align 1
  %18 = sext i8 %17 to i32
  %19 = icmp eq i32 %18, 32
  br i1 %19, label %20, label %23

20:                                               ; preds = %15
  %21 = load i32, i32* %4, align 4
  %22 = add nsw i32 %21, 1
  store i32 %22, i32* %4, align 4
  br label %23

23:                                               ; preds = %20, %15
  br label %24

24:                                               ; preds = %23
  %25 = load i8*, i8** %6, align 8
  %26 = getelementptr inbounds i8, i8* %25, i32 1
  store i8* %26, i8** %6, align 8
  br label %10

27:                                               ; preds = %10
  store i32 0, i32* %1, align 4
  br label %28

28:                                               ; preds = %36, %27
  %29 = load i32, i32* %1, align 4
  %30 = load i32, i32* %4, align 4
  %31 = icmp sle i32 %29, %30
  br i1 %31, label %32, label %39

32:                                               ; preds = %28
  %33 = load i32, i32* %1, align 4
  %34 = sext i32 %33 to i64
  %35 = getelementptr inbounds [1111 x i32], [1111 x i32]* %3, i64 0, i64 %34
  store i32 0, i32* %35, align 4
  br label %36

36:                                               ; preds = %32
  %37 = load i32, i32* %1, align 4
  %38 = add nsw i32 %37, 1
  store i32 %38, i32* %1, align 4
  br label %28

39:                                               ; preds = %28
  store i32 0, i32* %1, align 4
  %40 = getelementptr inbounds [11111 x i8], [11111 x i8]* %5, i64 0, i64 0
  store i8* %40, i8** %6, align 8
  br label %41

41:                                               ; preds = %76, %39
  %42 = load i8*, i8** %6, align 8
  %43 = load i8, i8* %42, align 1
  %44 = sext i8 %43 to i32
  %45 = icmp ne i32 %44, 0
  br i1 %45, label %46, label %79

46:                                               ; preds = %41
  %47 = load i8*, i8** %6, align 8
  %48 = load i8, i8* %47, align 1
  %49 = sext i8 %48 to i32
  %50 = icmp ne i32 %49, 32
  br i1 %50, label %51, label %60

51:                                               ; preds = %46
  %52 = load i32, i32* %1, align 4
  %53 = sext i32 %52 to i64
  %54 = getelementptr inbounds [1111 x i32], [1111 x i32]* %3, i64 0, i64 %53
  %55 = load i32, i32* %54, align 4
  %56 = add nsw i32 %55, 1
  %57 = load i32, i32* %1, align 4
  %58 = sext i32 %57 to i64
  %59 = getelementptr inbounds [1111 x i32], [1111 x i32]* %3, i64 0, i64 %58
  store i32 %56, i32* %59, align 4
  br label %75

60:                                               ; preds = %46
  %61 = load i8*, i8** %6, align 8
  %62 = load i8, i8* %61, align 1
  %63 = sext i8 %62 to i32
  %64 = icmp eq i32 %63, 32
  br i1 %64, label %65, label %74

65:                                               ; preds = %60
  %66 = load i8*, i8** %6, align 8
  %67 = getelementptr inbounds i8, i8* %66, i64 -1
  %68 = load i8, i8* %67, align 1
  %69 = sext i8 %68 to i32
  %70 = icmp ne i32 %69, 32
  br i1 %70, label %71, label %74

71:                                               ; preds = %65
  %72 = load i32, i32* %1, align 4
  %73 = add nsw i32 %72, 1
  store i32 %73, i32* %1, align 4
  br label %74

74:                                               ; preds = %71, %65, %60
  br label %75

75:                                               ; preds = %74, %51
  br label %76

76:                                               ; preds = %75
  %77 = load i8*, i8** %6, align 8
  %78 = getelementptr inbounds i8, i8* %77, i32 1
  store i8* %78, i8** %6, align 8
  br label %41

79:                                               ; preds = %41
  %80 = load i32, i32* %1, align 4
  store i32 %80, i32* %2, align 4
  %81 = getelementptr inbounds [1111 x i32], [1111 x i32]* %3, i64 0, i64 0
  %82 = load i32, i32* %81, align 16
  %83 = call i32 (i8*, ...) @printf(i8* getelementptr inbounds ([3 x i8], [3 x i8]* @.str, i64 0, i64 0), i32 %82)
  store i32 1, i32* %1, align 4
  br label %84

84:                                               ; preds = %94, %79
  %85 = load i32, i32* %1, align 4
  %86 = load i32, i32* %2, align 4
  %87 = icmp sle i32 %85, %86
  br i1 %87, label %88, label %97

88:                                               ; preds = %84
  %89 = load i32, i32* %1, align 4
  %90 = sext i32 %89 to i64
  %91 = getelementptr inbounds [1111 x i32], [1111 x i32]* %3, i64 0, i64 %90
  %92 = load i32, i32* %91, align 4
  %93 = call i32 (i8*, ...) @printf(i8* getelementptr inbounds ([4 x i8], [4 x i8]* @.str.1, i64 0, i64 0), i32 %92)
  br label %94

94:                                               ; preds = %88
  %95 = load i32, i32* %1, align 4
  %96 = add nsw i32 %95, 1
  store i32 %96, i32* %1, align 4
  br label %84

97:                                               ; preds = %84
  ret void
}

declare dso_local i32 @gets(...) #1

declare dso_local i32 @printf(i8*, ...) #1


!llvm.module.flags = !{!0}
!llvm.ident = !{!1}

!0 = !{i32 1, !"wchar_size", i32 4}
!1 = !{!"clang version 10.0.0-4ubuntu1 "}
